target datalayout = "e-m:e-p270:32:32-p271:32:32-p272:64:64-i64:64-i128:128-f80:128-n8:16:32:64-S128"
target triple = "x86_64-pc-linux-gnu"

%struct.Amap_Lib_t_ = type { ptr, ptr, ptr, ptr, ptr, ptr, ptr, ptr, ptr, i32, i32, i32, ptr, i32, i32, ptr, ptr, ptr, ptr, ptr, ptr, i32 }
%struct.Vec_Int_t_ = type { i32, i32, ptr }
%struct.Vec_Ptr_t_ = type { i32, i32, ptr }

; Function Attrs: inlinehint nounwind uwtable
define internal i32 @Vec_IntCheckWithMask(ptr noundef %0, i32 noundef %1) #1 {
  %3 = alloca i32, align 4
  %4 = alloca ptr, align 8
  %5 = alloca i32, align 4
  %6 = alloca i32, align 4
  %7 = alloca i32, align 4
  store ptr %0, ptr %4, align 8, !tbaa !20
  store i32 %1, ptr %5, align 4, !tbaa !8
  call void @llvm.lifetime.start.p0(i64 4, ptr %6) #7
  store i32 0, ptr %6, align 4, !tbaa !8
  br label %8

8:                                                ; preds = %36, %2
  %9 = load i32, ptr %6, align 4, !tbaa !8
  %10 = load ptr, ptr %4, align 8, !tbaa !20
  %11 = getelementptr inbounds nuw %struct.Vec_Int_t_, ptr %10, i32 0, i32 1
  %12 = load i32, ptr %11, align 4, !tbaa !21
  %13 = icmp slt i32 %9, %12
  br i1 %13, label %14, label %39

14:                                               ; preds = %8
  %15 = load ptr, ptr %4, align 8, !tbaa !20
  %16 = getelementptr inbounds nuw %struct.Vec_Int_t_, ptr %15, i32 0, i32 2
  %17 = load ptr, ptr %16, align 8, !tbaa !24
  %18 = load i32, ptr %6, align 4, !tbaa !8
  %19 = sext i32 %18 to i64
  %20 = getelementptr inbounds i32, ptr %17, i64 %19
  %21 = load i32, ptr %20, align 4, !tbaa !8
  %22 = and i32 65535, %21
  %23 = load i32, ptr %5, align 4, !tbaa !8
  %24 = and i32 65535, %23
  %25 = icmp eq i32 %22, %24
  br i1 %25, label %26, label %35

26:                                               ; preds = %14
  %27 = load ptr, ptr %4, align 8, !tbaa !20
  %28 = getelementptr inbounds nuw %struct.Vec_Int_t_, ptr %27, i32 0, i32 2
  %29 = load ptr, ptr %28, align 8, !tbaa !24
  %30 = load i32, ptr %6, align 4, !tbaa !8
  %31 = sext i32 %30 to i64
  %32 = getelementptr inbounds i32, ptr %29, i64 %31
  %33 = load i32, ptr %32, align 4, !tbaa !8
  %34 = ashr i32 %33, 16
  store i32 %34, ptr %3, align 4
  store i32 1, ptr %7, align 4
  br label %40

35:                                               ; preds = %14
  br label %36

36:                                               ; preds = %35
  %37 = load i32, ptr %6, align 4, !tbaa !8
  %38 = add nsw i32 %37, 1
  store i32 %38, ptr %6, align 4, !tbaa !8
  br label %8, !llvm.loop !25

39:                                               ; preds = %8
  store i32 -1, ptr %3, align 4
  store i32 1, ptr %7, align 4
  br label %40

40:                                               ; preds = %39, %26
  call void @llvm.lifetime.end.p0(i64 4, ptr %6) #7
  %41 = load i32, ptr %3, align 4
  ret i32 %41
}

; Function Attrs: inlinehint nounwind uwtable
define internal ptr @Vec_PtrEntry(ptr noundef %0, i32 noundef %1) #1 {
  %3 = alloca ptr, align 8
  %4 = alloca i32, align 4
  store ptr %0, ptr %3, align 8, !tbaa !27
  store i32 %1, ptr %4, align 4, !tbaa !8
  %5 = load ptr, ptr %3, align 8, !tbaa !27
  %6 = getelementptr inbounds nuw %struct.Vec_Ptr_t_, ptr %5, i32 0, i32 2
  %7 = load ptr, ptr %6, align 8, !tbaa !28
  %8 = load i32, ptr %4, align 4, !tbaa !8
  %9 = sext i32 %8 to i64
  %10 = getelementptr inbounds ptr, ptr %7, i64 %9
  %11 = load ptr, ptr %10, align 8, !tbaa !30
  ret ptr %11
}

; Function Attrs: nounwind uwtable
define i32 @Amap_LibFindNode(ptr noundef %0, i32 noundef %1, i32 noundef %2, i32 noundef %3) #0 {
  %5 = alloca i32, align 4
  %6 = alloca ptr, align 8
  %7 = alloca i32, align 4
  %8 = alloca i32, align 4
  %9 = alloca i32, align 4
  store ptr %0, ptr %6, align 8, !tbaa !3
  store i32 %1, ptr %7, align 4, !tbaa !8
  store i32 %2, ptr %8, align 4, !tbaa !8
  store i32 %3, ptr %9, align 4, !tbaa !8
  %10 = load i32, ptr %9, align 4, !tbaa !8
  %11 = icmp ne i32 %10, 0
  br i1 %11, label %12, label %20

12:                                               ; preds = %4
  %13 = load ptr, ptr %6, align 8, !tbaa !3
  %14 = getelementptr inbounds nuw %struct.Amap_Lib_t_, ptr %13, i32 0, i32 16
  %15 = load ptr, ptr %14, align 8, !tbaa !10
  %16 = load i32, ptr %7, align 4, !tbaa !8
  %17 = call ptr @Vec_PtrEntry(ptr noundef %15, i32 noundef %16)
  %18 = load i32, ptr %8, align 4, !tbaa !8
  %19 = call i32 @Vec_IntCheckWithMask(ptr noundef %17, i32 noundef %18)
  store i32 %19, ptr %5, align 4
  br label %28

20:                                               ; preds = %4
  %21 = load ptr, ptr %6, align 8, !tbaa !3
  %22 = getelementptr inbounds nuw %struct.Amap_Lib_t_, ptr %21, i32 0, i32 15
  %23 = load ptr, ptr %22, align 8, !tbaa !19
  %24 = load i32, ptr %7, align 4, !tbaa !8
  %25 = call ptr @Vec_PtrEntry(ptr noundef %23, i32 noundef %24)
  %26 = load i32, ptr %8, align 4, !tbaa !8
  %27 = call i32 @Vec_IntCheckWithMask(ptr noundef %25, i32 noundef %26)
  store i32 %27, ptr %5, align 4
  br label %28

28:                                               ; preds = %20, %12
  %29 = load i32, ptr %5, align 4
  ret i32 %29
}