; Function Attrs: nofree norecurse nosync nounwind memory(read, inaccessiblemem: none) uwtable
define range(i32 -32768, 32768) i32 @Amap_LibFindNode(ptr noundef readonly captures(none) %0, i32 noundef %1, i32 noundef %2, i32 noundef %3) local_unnamed_addr #0 {
  %.not = icmp eq i32 %3, 0
  %5 = sext i32 %1 to i64
  br i1 %.not, label %26, label %6

6:                                                ; preds = %4
  %7 = getelementptr inbounds nuw i8, ptr %0, i64 112
  %8 = load ptr, ptr %7, align 8, !tbaa !3
  %9 = getelementptr i8, ptr %8, i64 8
  %.val = load ptr, ptr %9, align 8, !tbaa !16
  %10 = getelementptr inbounds ptr, ptr %.val, i64 %5
  %11 = load ptr, ptr %10, align 8, !tbaa !18
  %12 = getelementptr inbounds nuw i8, ptr %11, i64 4
  %13 = load i32, ptr %12, align 4, !tbaa !19
  %14 = icmp sgt i32 %13, 0
  br i1 %14, label %.lr.ph.i, label %Vec_IntCheckWithMask.exit

.lr.ph.i:                                         ; preds = %6
  %15 = getelementptr inbounds nuw i8, ptr %11, i64 8
  %16 = load ptr, ptr %15, align 8, !tbaa !22
  %wide.trip.count.i = zext nneg i32 %13 to i64
  br label %18

17:                                               ; preds = %18
  %indvars.iv.next.i = add nuw nsw i64 %indvars.iv.i, 1
  %exitcond.not.i = icmp eq i64 %indvars.iv.next.i, %wide.trip.count.i
  br i1 %exitcond.not.i, label %Vec_IntCheckWithMask.exit, label %18, !llvm.loop !23

18:                                               ; preds = %17, %.lr.ph.i
  %indvars.iv.i = phi i64 [ 0, %.lr.ph.i ], [ %indvars.iv.next.i, %17 ]
  %19 = getelementptr inbounds nuw i32, ptr %16, i64 %indvars.iv.i
  %20 = load i32, ptr %19, align 4, !tbaa !25
  %21 = xor i32 %20, %2
  %22 = and i32 %21, 65535
  %23 = icmp eq i32 %22, 0
  br i1 %23, label %24, label %17

24:                                               ; preds = %18
  %25 = ashr i32 %20, 16
  br label %Vec_IntCheckWithMask.exit

26:                                               ; preds = %4
  %27 = getelementptr inbounds nuw i8, ptr %0, i64 104
  %28 = load ptr, ptr %27, align 8, !tbaa !26
  %29 = getelementptr i8, ptr %28, i64 8
  %.val7 = load ptr, ptr %29, align 8, !tbaa !16
  %30 = getelementptr inbounds ptr, ptr %.val7, i64 %5
  %31 = load ptr, ptr %30, align 8, !tbaa !18
  %32 = getelementptr inbounds nuw i8, ptr %31, i64 4
  %33 = load i32, ptr %32, align 4, !tbaa !19
  %34 = icmp sgt i32 %33, 0
  br i1 %34, label %.lr.ph.i9, label %Vec_IntCheckWithMask.exit

.lr.ph.i9:                                        ; preds = %26
  %35 = getelementptr inbounds nuw i8, ptr %31, i64 8
  %36 = load ptr, ptr %35, align 8, !tbaa !22
  %wide.trip.count.i10 = zext nneg i32 %33 to i64
  br label %38

37:                                               ; preds = %38
  %indvars.iv.next.i12 = add nuw nsw i64 %indvars.iv.i11, 1
  %exitcond.not.i13 = icmp eq i64 %indvars.iv.next.i12, %wide.trip.count.i10
  br i1 %exitcond.not.i13, label %Vec_IntCheckWithMask.exit, label %38, !llvm.loop !23

38:                                               ; preds = %37, %.lr.ph.i9
  %indvars.iv.i11 = phi i64 [ 0, %.lr.ph.i9 ], [ %indvars.iv.next.i12, %37 ]
  %39 = getelementptr inbounds nuw i32, ptr %36, i64 %indvars.iv.i11
  %40 = load i32, ptr %39, align 4, !tbaa !25
  %41 = xor i32 %40, %2
  %42 = and i32 %41, 65535
  %43 = icmp eq i32 %42, 0
  br i1 %43, label %44, label %37

44:                                               ; preds = %38
  %45 = ashr i32 %40, 16
  br label %Vec_IntCheckWithMask.exit

Vec_IntCheckWithMask.exit:                        ; preds = %17, %37, %44, %26, %24, %6
  %.0 = phi i32 [ %25, %24 ], [ -1, %6 ], [ %45, %44 ], [ -1, %26 ], [ -1, %37 ], [ -1, %17 ]
  ret i32 %.0
}